target datalayout = "e-m:e-p270:32:32-p271:32:32-p272:64:64-i64:64-i128:128-f80:128-n8:16:32:64-S128"
target triple = "x86_64-pc-linux-gnu"

%"class.icu_77::CharacterIterator" = type { %"class.icu_77::ForwardCharacterIterator", i32, i32, i32, i32 }
%"class.icu_77::ForwardCharacterIterator" = type { %"class.icu_77::UObject" }
%"class.icu_77::UObject" = type { ptr }

@_ZTVN6icu_777UObjectE = available_externally unnamed_addr constant { [5 x ptr] } { [5 x ptr] [ptr null, ptr @_ZTIN6icu_777UObjectE, ptr @_ZN6icu_777UObjectD1Ev, ptr @_ZN6icu_777UObjectD0Ev, ptr @_ZNK6icu_777UObject17getDynamicClassIDEv] }, align 8

; Function Attrs: inlinehint mustprogress nounwind uwtable
define linkonce_odr void @_ZN6icu_777UObjectC2Ev(ptr noundef nonnull align 8 dereferenceable(8) %0) unnamed_addr #4 comdat align 2 {
  %2 = alloca ptr, align 8
  store ptr %0, ptr %2, align 8, !tbaa !10
  %3 = load ptr, ptr %2, align 8
  store ptr getelementptr inbounds inrange(-16, 24) ({ [5 x ptr] }, ptr @_ZTVN6icu_777UObjectE, i32 0, i32 0, i32 2), ptr %3, align 8, !tbaa !8
  ret void
}

; Function Attrs: mustprogress nounwind uwtable
define void @_ZN6icu_7724ForwardCharacterIteratorC2Ev(ptr noundef nonnull align 8 dereferenceable(8) %0) unnamed_addr #1 align 2 {
  %2 = alloca ptr, align 8
  store ptr %0, ptr %2, align 8, !tbaa !3
  %3 = load ptr, ptr %2, align 8
  %4 = getelementptr inbounds i8, ptr %3, i64 0
  call void @llvm.memset.p0.i64(ptr align 8 %4, i8 0, i64 8, i1 false)
  call void @_ZN6icu_777UObjectC2Ev(ptr noundef nonnull align 8 dereferenceable(8) %3) #8
  store ptr getelementptr inbounds inrange(-16, 64) ({ [10 x ptr] }, ptr @_ZTVN6icu_7724ForwardCharacterIteratorE, i32 0, i32 0, i32 2), ptr %3, align 8, !tbaa !8
  ret void
}

; Function Attrs: mustprogress nounwind uwtable
define void @_ZN6icu_7717CharacterIteratorC2Ei(ptr noundef nonnull align 8 dereferenceable(24) %0, i32 noundef %1) unnamed_addr #1 align 2 {
  %3 = alloca ptr, align 8
  %4 = alloca i32, align 4
  store ptr %0, ptr %3, align 8, !tbaa !12
  store i32 %1, ptr %4, align 4, !tbaa !22
  %5 = load ptr, ptr %3, align 8
  call void @_ZN6icu_7724ForwardCharacterIteratorC2Ev(ptr noundef nonnull align 8 dereferenceable(8) %5)
  store ptr getelementptr inbounds inrange(-16, 216) ({ [29 x ptr] }, ptr @_ZTVN6icu_7717CharacterIteratorE, i32 0, i32 0, i32 2), ptr %5, align 8, !tbaa !8
  %6 = getelementptr inbounds nuw %"class.icu_77::CharacterIterator", ptr %5, i32 0, i32 1
  %7 = load i32, ptr %4, align 4, !tbaa !22
  store i32 %7, ptr %6, align 8, !tbaa !14
  %8 = getelementptr inbounds nuw %"class.icu_77::CharacterIterator", ptr %5, i32 0, i32 2
  store i32 0, ptr %8, align 4, !tbaa !19
  %9 = getelementptr inbounds nuw %"class.icu_77::CharacterIterator", ptr %5, i32 0, i32 3
  store i32 0, ptr %9, align 8, !tbaa !20
  %10 = getelementptr inbounds nuw %"class.icu_77::CharacterIterator", ptr %5, i32 0, i32 4
  %11 = load i32, ptr %4, align 4, !tbaa !22
  store i32 %11, ptr %10, align 4, !tbaa !21
  %12 = getelementptr inbounds nuw %"class.icu_77::CharacterIterator", ptr %5, i32 0, i32 1
  %13 = load i32, ptr %12, align 8, !tbaa !14
  %14 = icmp slt i32 %13, 0
  br i1 %14, label %15, label %18

15:                                               ; preds = %2
  %16 = getelementptr inbounds nuw %"class.icu_77::CharacterIterator", ptr %5, i32 0, i32 4
  store i32 0, ptr %16, align 4, !tbaa !21
  %17 = getelementptr inbounds nuw %"class.icu_77::CharacterIterator", ptr %5, i32 0, i32 1
  store i32 0, ptr %17, align 8, !tbaa !14
  br label %18

18:                                               ; preds = %15, %2
  ret void
}