; Function Attrs: mustprogress nofree norecurse nosync nounwind willreturn memory(argmem: write) uwtable
define void @_ZN6icu_7717CharacterIteratorC2Ei(ptr noundef nonnull writeonly align 8 captures(none) dereferenceable(24) initializes((0, 24)) %0, i32 noundef %1) unnamed_addr #4 align 2 {
  store ptr getelementptr inbounds nuw inrange(-16, 216) (i8, ptr @_ZTVN6icu_7717CharacterIteratorE, i64 16), ptr %0, align 8, !tbaa !3
  %3 = getelementptr inbounds nuw i8, ptr %0, i64 8
  store i32 %1, ptr %3, align 8, !tbaa !6
  %4 = getelementptr inbounds nuw i8, ptr %0, i64 12
  store i32 0, ptr %4, align 4, !tbaa !12
  %5 = getelementptr inbounds nuw i8, ptr %0, i64 16
  store i32 0, ptr %5, align 8, !tbaa !13
  %6 = getelementptr inbounds nuw i8, ptr %0, i64 20
  store i32 %1, ptr %6, align 4, !tbaa !14
  %7 = icmp slt i32 %1, 0
  br i1 %7, label %8, label %9

8:                                                ; preds = %2
  store i32 0, ptr %6, align 4, !tbaa !14
  store i32 0, ptr %3, align 8, !tbaa !6
  br label %9

9:                                                ; preds = %8, %2
  ret void
}